Certificate:
    Data:
        Version: 3 (0x2)
        Serial Number:
            a9:d9:7e:96:58:c0:f3:a0:bf:6b:46:98:6b:38:d2:3a
        Signature Algorithm: ecdsa-with-SHA512
        Issuer: CN=farah
        Validity
            Not Before: Jan 17 14:01:43 2024 GMT
            Not After : Jan  1 14:01:43 2027 GMT
        Subject: CN=user2
        Subject Public Key Info:
            Public Key Algorithm: id-ecPublicKey
                Public-Key: (384 bit)
                pub:
                    04:76:d9:bc:94:d6:37:6e:97:25:61:88:bf:ec:b5:
                    b4:61:40:e1:b1:ea:7b:69:d9:b1:a7:7a:d2:e5:00:
                    84:7f:19:b0:cb:6e:8a:bb:8b:17:b4:7a:98:0d:b5:
                    e8:19:da:c9:b7:40:76:b7:cc:bf:99:35:e0:14:62:
                    a7:94:ea:47:fa:63:ab:03:1b:58:41:41:39:1c:f1:
                    07:90:49:02:4c:29:da:ed:96:40:04:29:ed:0e:1f:
                    a4:c0:04:27:49:ad:17
                ASN1 OID: secp384r1
                NIST CURVE: P-384
        X509v3 extensions:
            X509v3 Basic Constraints: 
                CA:FALSE
            X509v3 Subject Key Identifier: 
                71:E6:90:FC:61:42:97:C0:26:26:E2:99:FC:20:45:90:B4:39:AF:40
            X509v3 Authority Key Identifier: 
                keyid:32:1D:AD:F4:28:C0:F5:9C:18:4E:83:DF:A4:2E:E6:CA:C9:1D:C7:9B
                DirName:/CN=farah
                serial:4A:6B:16:1C:DF:DA:DF:B4:5A:B1:18:49:79:80:77:0B:B1:D6:D5:FA

            X509v3 Extended Key Usage: 
                TLS Web Client Authentication
            X509v3 Key Usage: 
                Digital Signature
    Signature Algorithm: ecdsa-with-SHA512
         30:65:02:30:1d:10:c9:ba:d7:b4:37:c5:be:a9:6f:3f:9e:6f:
         59:15:63:5e:fe:6e:a7:52:44:dd:c3:c1:47:1f:74:25:ce:40:
         c2:39:82:66:db:85:bf:2e:86:0b:63:1c:32:77:00:fb:02:31:
         00:a6:98:2c:54:5e:9b:60:95:6e:ab:2e:dd:2b:51:07:5b:67:
         32:39:0f:76:87:ed:51:94:e4:cd:03:5e:f7:74:41:09:43:fc:
         f6:26:76:8d:98:75:0a:20:91:04:0f:0f:87
-----BEGIN CERTIFICATE-----
MIIB+TCCAX+gAwIBAgIRAKnZfpZYwPOgv2tGmGs40jowCgYIKoZIzj0EAwQwEDEO
MAwGA1UEAwwFZmFyYWgwHhcNMjQwMTE3MTQwMTQzWhcNMjcwMTAxMTQwMTQzWjAQ
MQ4wDAYDVQQDDAV1c2VyMjB2MBAGByqGSM49AgEGBSuBBAAiA2IABHbZvJTWN26X
JWGIv+y1tGFA4bHqe2nZsad60uUAhH8ZsMtuiruLF7R6mA216BnaybdAdrfMv5k1
4BRip5TqR/pjqwMbWEFBORzxB5BJAkwp2u2WQAQp7Q4fpMAEJ0mtF6OBnDCBmTAJ
BgNVHRMEAjAAMB0GA1UdDgQWBBRx5pD8YUKXwCYm4pn8IEWQtDmvQDBLBgNVHSME
RDBCgBQyHa30KMD1nBhOg9+kLubKyR3Hm6EUpBIwEDEOMAwGA1UEAwwFZmFyYWiC
FEprFhzf2t+0WrEYSXmAdwux1tX6MBMGA1UdJQQMMAoGCCsGAQUFBwMCMAsGA1Ud
DwQEAwIHgDAKBggqhkjOPQQDBANoADBlAjAdEMm617Q3xb6pbz+eb1kVY17+bqdS
RN3DwUcfdCXOQMI5gmbbhb8uhgtjHDJ3APsCMQCmmCxUXptglW6rLt0rUQdbZzI5
D3aH7VGU5M0DXvd0QQlD/PYmdo2YdQogkQQPD4c=
-----END CERTIFICATE-----
