Certificate:
    Data:
        Version: 3 (0x2)
        Serial Number:
            f6:60:73:36:15:86:36:66:43:ff:4c:97:aa:6b:d5:17
        Signature Algorithm: ecdsa-with-SHA512
        Issuer: CN=farah
        Validity
            Not Before: Jan 16 19:10:00 2024 GMT
            Not After : Dec 31 19:10:00 2026 GMT
        Subject: CN=server
        Subject Public Key Info:
            Public Key Algorithm: id-ecPublicKey
                Public-Key: (384 bit)
                pub:
                    04:b9:cb:32:c3:c7:18:7c:be:3f:23:16:0b:78:82:
                    de:fb:03:73:c3:78:11:cc:75:84:2d:05:49:44:51:
                    25:c3:75:0c:a9:6c:ad:23:aa:05:70:1a:d0:10:64:
                    82:c8:4b:3b:39:c9:ad:42:34:27:cf:ae:d6:4c:c3:
                    7b:3f:4c:a2:de:e2:18:1c:23:14:ae:51:f9:87:48:
                    27:3f:12:79:64:32:8d:8b:02:53:2a:1c:21:17:c5:
                    d0:fe:ce:e3:fd:ea:78
                ASN1 OID: secp384r1
                NIST CURVE: P-384
        X509v3 extensions:
            X509v3 Basic Constraints: 
                CA:FALSE
            X509v3 Subject Key Identifier: 
                7C:B1:A8:8D:58:26:6E:9C:23:1E:8F:BE:D7:72:70:D2:69:49:BA:A0
            X509v3 Authority Key Identifier: 
                keyid:32:1D:AD:F4:28:C0:F5:9C:18:4E:83:DF:A4:2E:E6:CA:C9:1D:C7:9B
                DirName:/CN=farah
                serial:4A:6B:16:1C:DF:DA:DF:B4:5A:B1:18:49:79:80:77:0B:B1:D6:D5:FA

            X509v3 Extended Key Usage: 
                TLS Web Server Authentication
            X509v3 Key Usage: 
                Digital Signature, Key Encipherment
            X509v3 Subject Alternative Name: 
                DNS:server
    Signature Algorithm: ecdsa-with-SHA512
         30:64:02:30:4a:7c:e9:40:2c:c3:be:0d:02:70:a4:f9:fd:bc:
         bc:e2:89:4f:66:40:6b:6b:27:4b:d5:d5:12:0b:91:fb:4d:00:
         a0:ae:1a:85:41:25:3b:17:c7:d2:e2:a4:41:c0:45:da:02:30:
         61:f9:86:c8:78:18:1e:94:f0:48:24:9b:77:ee:86:98:5f:2c:
         44:f8:91:11:9b:2a:2f:c9:52:52:bd:8b:41:6a:e5:f6:8c:aa:
         91:0a:b4:49:b7:dd:eb:c2:93:8f:b7:f4
-----BEGIN CERTIFICATE-----
MIICDDCCAZOgAwIBAgIRAPZgczYVhjZmQ/9Ml6pr1RcwCgYIKoZIzj0EAwQwEDEO
MAwGA1UEAwwFZmFyYWgwHhcNMjQwMTE2MTkxMDAwWhcNMjYxMjMxMTkxMDAwWjAR
MQ8wDQYDVQQDDAZzZXJ2ZXIwdjAQBgcqhkjOPQIBBgUrgQQAIgNiAAS5yzLDxxh8
vj8jFgt4gt77A3PDeBHMdYQtBUlEUSXDdQypbK0jqgVwGtAQZILISzs5ya1CNCfP
rtZMw3s/TKLe4hgcIxSuUfmHSCc/EnlkMo2LAlMqHCEXxdD+zuP96nijga8wgaww
CQYDVR0TBAIwADAdBgNVHQ4EFgQUfLGojVgmbpwjHo++13Jw0mlJuqAwSwYDVR0j
BEQwQoAUMh2t9CjA9ZwYToPfpC7myskdx5uhFKQSMBAxDjAMBgNVBAMMBWZhcmFo
ghRKaxYc39rftFqxGEl5gHcLsdbV+jATBgNVHSUEDDAKBggrBgEFBQcDATALBgNV
HQ8EBAMCBaAwEQYDVR0RBAowCIIGc2VydmVyMAoGCCqGSM49BAMEA2cAMGQCMEp8
6UAsw74NAnCk+f28vOKJT2ZAa2snS9XVEguR+00AoK4ahUElOxfH0uKkQcBF2gIw
YfmGyHgYHpTwSCSbd+6GmF8sRPiREZsqL8lSUr2LQWrl9oyqkQq0Sbfd68KTj7f0
-----END CERTIFICATE-----
